target datalayout = "e-m:e-p270:32:32-p271:32:32-p272:64:64-i64:64-i128:128-f80:128-n8:16:32:64-S128"
target triple = "x86_64-pc-linux-gnu"

%struct._zend_extension = type { ptr, ptr, ptr, ptr, ptr, ptr, ptr, ptr, ptr, ptr, ptr, ptr, ptr, ptr, ptr, ptr, ptr, ptr, ptr, ptr, ptr, ptr, ptr, ptr, ptr, i32 }

; Function Attrs: nounwind uwtable
define internal void @zend_extension_shutdown(ptr noundef %0) #0 {
  %2 = alloca ptr, align 8
  store ptr %0, ptr %2, align 8, !tbaa !14
  %3 = load ptr, ptr %2, align 8, !tbaa !14
  %4 = getelementptr inbounds nuw %struct._zend_extension, ptr %3, i32 0, i32 6
  %5 = load ptr, ptr %4, align 8, !tbaa !42
  %6 = icmp ne ptr %5, null
  br i1 %6, label %7, label %12

7:                                                ; preds = %1
  %8 = load ptr, ptr %2, align 8, !tbaa !14
  %9 = getelementptr inbounds nuw %struct._zend_extension, ptr %8, i32 0, i32 6
  %10 = load ptr, ptr %9, align 8, !tbaa !42
  %11 = load ptr, ptr %2, align 8, !tbaa !14
  call void %10(ptr noundef %11)
  br label %12

12:                                               ; preds = %7, %1
  ret void
}