; Function Attrs: nounwind uwtable
define internal void @zend_extension_shutdown(ptr noundef %0) #0 {
  %2 = getelementptr inbounds nuw i8, ptr %0, i64 48
  %3 = load ptr, ptr %2, align 8, !tbaa !33
  %.not = icmp eq ptr %3, null
  br i1 %.not, label %5, label %4

4:                                                ; preds = %1
  tail call void %3(ptr noundef nonnull %0) #14
  br label %5

5:                                                ; preds = %4, %1
  ret void
}